target datalayout = "e-m:e-p270:32:32-p271:32:32-p272:64:64-i64:64-i128:128-f80:128-n8:16:32:64-S128"
target triple = "x86_64-pc-linux-gnu"

%struct.tMPI_Atomic = type { i32, [60 x i8] }
%struct.tMPI_Thread_key_t = type { %struct.tMPI_Atomic, ptr }
%struct.tMPI_Thread_key = type { i32 }

; Function Attrs: mustprogress nounwind uwtable
define noundef i32 @_Z22tMPI_Thread_key_createP17tMPI_Thread_key_tPFvPvE(ptr noundef %0, ptr noundef %1) #0 {
  %3 = alloca i32, align 4
  %4 = alloca ptr, align 8
  %5 = alloca ptr, align 8
  %6 = alloca i32, align 4
  store ptr %0, ptr %4, align 8
  store ptr %1, ptr %5, align 8
  %7 = load ptr, ptr %4, align 8
  %8 = icmp eq ptr %7, null
  br i1 %8, label %9, label %10

9:                                                ; preds = %2
  store i32 22, ptr %3, align 4
  br label %34

10:                                               ; preds = %2
  %11 = call noalias ptr @malloc(i64 noundef 4) #9
  %12 = load ptr, ptr %4, align 8
  %13 = getelementptr inbounds %struct.tMPI_Thread_key_t, ptr %12, i32 0, i32 1
  store ptr %11, ptr %13, align 8
  %14 = load ptr, ptr %4, align 8
  %15 = getelementptr inbounds %struct.tMPI_Thread_key_t, ptr %14, i32 0, i32 1
  %16 = load ptr, ptr %15, align 8
  %17 = icmp eq ptr %16, null
  br i1 %17, label %18, label %19

18:                                               ; preds = %10
  store i32 12, ptr %3, align 4
  br label %34

19:                                               ; preds = %10
  %20 = load ptr, ptr %4, align 8
  %21 = getelementptr inbounds %struct.tMPI_Thread_key_t, ptr %20, i32 0, i32 1
  %22 = load ptr, ptr %21, align 8
  %23 = getelementptr inbounds %struct.tMPI_Thread_key, ptr %22, i32 0, i32 0
  %24 = load ptr, ptr %5, align 8
  %25 = call i32 @pthread_key_create(ptr noundef %23, ptr noundef %24) #8
  store i32 %25, ptr %6, align 4
  %26 = load i32, ptr %6, align 4
  %27 = icmp ne i32 %26, 0
  br i1 %27, label %28, label %30

28:                                               ; preds = %19
  %29 = load i32, ptr %6, align 4
  store i32 %29, ptr %3, align 4
  br label %34

30:                                               ; preds = %19
  %31 = load ptr, ptr %4, align 8
  %32 = getelementptr inbounds %struct.tMPI_Thread_key_t, ptr %31, i32 0, i32 0
  %33 = getelementptr inbounds %struct.tMPI_Atomic, ptr %32, i32 0, i32 0
  store i32 1, ptr %33, align 8
  store i32 0, ptr %3, align 4
  br label %34

34:                                               ; preds = %30, %28, %18, %9
  %35 = load i32, ptr %3, align 4
  ret i32 %35
}