; Function Attrs: mustprogress nounwind uwtable
define noundef i32 @_Z22tMPI_Thread_key_createP17tMPI_Thread_key_tPFvPvE(ptr noundef writeonly %0, ptr noundef %1) local_unnamed_addr #1 {
  %3 = icmp eq ptr %0, null
  br i1 %3, label %11, label %4

4:                                                ; preds = %2
  %5 = tail call noalias dereferenceable_or_null(4) ptr @malloc(i64 noundef 4) #14
  %6 = getelementptr inbounds i8, ptr %0, i64 64
  store ptr %5, ptr %6, align 8
  %7 = icmp eq ptr %5, null
  br i1 %7, label %11, label %8

8:                                                ; preds = %4
  %9 = tail call i32 @pthread_key_create(ptr noundef nonnull %5, ptr noundef %1) #13
  %.not = icmp eq i32 %9, 0
  br i1 %.not, label %10, label %11

10:                                               ; preds = %8
  store i32 1, ptr %0, align 8
  br label %11

11:                                               ; preds = %8, %4, %2, %10
  %.0 = phi i32 [ 0, %10 ], [ 22, %2 ], [ 12, %4 ], [ %9, %8 ]
  ret i32 %.0
}